target datalayout = "e-m:e-p270:32:32-p271:32:32-p272:64:64-i64:64-i128:128-f80:128-n8:16:32:64-S128"
target triple = "x86_64-pc-linux-gnu"

%"class.google::protobuf::io::EpsCopyOutputStream" = type <{ ptr, ptr, [32 x i8], ptr, i8, i8, i8, [5 x i8] }>

; Function Attrs: mustprogress uwtable
define void @_ZN6google8protobuf2io19EpsCopyOutputStream14EnableAliasingEb(ptr noundef nonnull align 8 dereferenceable(59) %0, i1 noundef zeroext %1) #5 align 2 {
  %3 = alloca ptr, align 8
  %4 = alloca i8, align 1
  store ptr %0, ptr %3, align 8, !tbaa !76
  %5 = zext i1 %1 to i8
  store i8 %5, ptr %4, align 1, !tbaa !32
  %6 = load ptr, ptr %3, align 8
  %7 = load i8, ptr %4, align 1, !tbaa !32, !range !36, !noundef !37
  %8 = trunc i8 %7 to i1
  br i1 %8, label %9, label %16

9:                                                ; preds = %2
  %10 = getelementptr inbounds nuw %"class.google::protobuf::io::EpsCopyOutputStream", ptr %6, i32 0, i32 3
  %11 = load ptr, ptr %10, align 8, !tbaa !78
  %12 = load ptr, ptr %11, align 8, !tbaa !19
  %13 = getelementptr inbounds ptr, ptr %12, i64 6
  %14 = load ptr, ptr %13, align 8
  %15 = call noundef zeroext i1 %14(ptr noundef nonnull align 8 dereferenceable(8) %11)
  br label %16

16:                                               ; preds = %9, %2
  %17 = phi i1 [ false, %2 ], [ %15, %9 ]
  %18 = getelementptr inbounds nuw %"class.google::protobuf::io::EpsCopyOutputStream", ptr %6, i32 0, i32 5
  %19 = zext i1 %17 to i8
  store i8 %19, ptr %18, align 1, !tbaa !81
  ret void
}